target datalayout = "e-m:e-p270:32:32-p271:32:32-p272:64:64-i64:64-i128:128-f80:128-n8:16:32:64-S128"
target triple = "x86_64-pc-linux-gnu"

%struct.Gla_Man_t_ = type { ptr, ptr, ptr, ptr, ptr, ptr, ptr, i32, i32, i32, i32, i32, ptr, ptr, ptr, ptr, ptr, ptr, ptr, i32, ptr, ptr, ptr, i64, i64, i64, i64, i64 }
%struct.Gla_Obj_t_ = type { i32, i32, [4 x i32], %struct.Vec_Int_t_ }
%struct.Vec_Int_t_ = type { i32, i32, ptr }

@Gla_ManExplorePPis.Round = internal global i32 0, align 4

; Function Attrs: inlinehint nounwind uwtable
define internal void @Vec_IntShrink(ptr noundef %0, i32 noundef %1) #2 {
  %3 = alloca ptr, align 8
  %4 = alloca i32, align 4
  store ptr %0, ptr %3, align 8, !tbaa !12
  store i32 %1, ptr %4, align 4, !tbaa !14
  %5 = load i32, ptr %4, align 4, !tbaa !14
  %6 = load ptr, ptr %3, align 8, !tbaa !12
  %7 = getelementptr inbounds nuw %struct.Vec_Int_t_, ptr %6, i32 0, i32 1
  store i32 %5, ptr %7, align 4, !tbaa !46
  ret void
}

; Function Attrs: inlinehint nounwind uwtable
define internal void @Vec_IntWriteEntry(ptr noundef %0, i32 noundef %1, i32 noundef %2) #2 {
  %4 = alloca ptr, align 8
  %5 = alloca i32, align 4
  %6 = alloca i32, align 4
  store ptr %0, ptr %4, align 8, !tbaa !12
  store i32 %1, ptr %5, align 4, !tbaa !14
  store i32 %2, ptr %6, align 4, !tbaa !14
  %7 = load i32, ptr %6, align 4, !tbaa !14
  %8 = load ptr, ptr %4, align 8, !tbaa !12
  %9 = getelementptr inbounds nuw %struct.Vec_Int_t_, ptr %8, i32 0, i32 2
  %10 = load ptr, ptr %9, align 8, !tbaa !48
  %11 = load i32, ptr %5, align 4, !tbaa !14
  %12 = sext i32 %11 to i64
  %13 = getelementptr inbounds i32, ptr %10, i64 %12
  store i32 %7, ptr %13, align 4, !tbaa !14
  ret void
}

; Function Attrs: inlinehint nounwind uwtable
define internal i32 @Gla_ObjId(ptr noundef %0, ptr noundef %1) #2 {
  %3 = alloca ptr, align 8
  %4 = alloca ptr, align 8
  store ptr %0, ptr %3, align 8, !tbaa !3
  store ptr %1, ptr %4, align 8, !tbaa !26
  %5 = load ptr, ptr %4, align 8, !tbaa !26
  %6 = load ptr, ptr %3, align 8, !tbaa !3
  %7 = getelementptr inbounds nuw %struct.Gla_Man_t_, ptr %6, i32 0, i32 5
  %8 = load ptr, ptr %7, align 8, !tbaa !49
  %9 = ptrtoint ptr %5 to i64
  %10 = ptrtoint ptr %8 to i64
  %11 = sub i64 %9, %10
  %12 = sdiv exact i64 %11, 40
  %13 = trunc i64 %12 to i32
  ret i32 %13
}

; Function Attrs: inlinehint nounwind uwtable
define internal ptr @Gla_ManObj(ptr noundef %0, i32 noundef %1) #2 {
  %3 = alloca ptr, align 8
  %4 = alloca i32, align 4
  store ptr %0, ptr %3, align 8, !tbaa !3
  store i32 %1, ptr %4, align 4, !tbaa !14
  %5 = load i32, ptr %4, align 4, !tbaa !14
  %6 = icmp ne i32 %5, 0
  br i1 %6, label %7, label %14

7:                                                ; preds = %2
  %8 = load ptr, ptr %3, align 8, !tbaa !3
  %9 = getelementptr inbounds nuw %struct.Gla_Man_t_, ptr %8, i32 0, i32 5
  %10 = load ptr, ptr %9, align 8, !tbaa !49
  %11 = load i32, ptr %4, align 4, !tbaa !14
  %12 = sext i32 %11 to i64
  %13 = getelementptr inbounds %struct.Gla_Obj_t_, ptr %10, i64 %12
  br label %15

14:                                               ; preds = %2
  br label %15

15:                                               ; preds = %14, %7
  %16 = phi ptr [ %13, %7 ], [ null, %14 ]
  ret ptr %16
}

; Function Attrs: inlinehint nounwind uwtable
define internal i32 @Vec_IntEntry(ptr noundef %0, i32 noundef %1) #2 {
  %3 = alloca ptr, align 8
  %4 = alloca i32, align 4
  store ptr %0, ptr %3, align 8, !tbaa !12
  store i32 %1, ptr %4, align 4, !tbaa !14
  %5 = load ptr, ptr %3, align 8, !tbaa !12
  %6 = getelementptr inbounds nuw %struct.Vec_Int_t_, ptr %5, i32 0, i32 2
  %7 = load ptr, ptr %6, align 8, !tbaa !48
  %8 = load i32, ptr %4, align 4, !tbaa !14
  %9 = sext i32 %8 to i64
  %10 = getelementptr inbounds i32, ptr %7, i64 %9
  %11 = load i32, ptr %10, align 4, !tbaa !14
  ret i32 %11
}

; Function Attrs: inlinehint nounwind uwtable
define internal i32 @Vec_IntSize(ptr noundef %0) #2 {
  %2 = alloca ptr, align 8
  store ptr %0, ptr %2, align 8, !tbaa !12
  %3 = load ptr, ptr %2, align 8, !tbaa !12
  %4 = getelementptr inbounds nuw %struct.Vec_Int_t_, ptr %3, i32 0, i32 1
  %5 = load i32, ptr %4, align 4, !tbaa !46
  ret i32 %5
}

; Function Attrs: nounwind uwtable
define void @Gla_ManExplorePPis(ptr noundef %0, ptr noundef %1) #0 {
  %3 = alloca ptr, align 8
  %4 = alloca ptr, align 8
  %5 = alloca ptr, align 8
  %6 = alloca ptr, align 8
  %7 = alloca i32, align 4
  %8 = alloca i32, align 4
  %9 = alloca i32, align 4
  %10 = alloca i32, align 4
  %11 = alloca i32, align 4
  store ptr %0, ptr %3, align 8, !tbaa !3
  store ptr %1, ptr %4, align 8, !tbaa !12
  call void @llvm.lifetime.start.p0(i64 8, ptr %5) #13
  call void @llvm.lifetime.start.p0(i64 8, ptr %6) #13
  call void @llvm.lifetime.start.p0(i64 4, ptr %7) #13
  call void @llvm.lifetime.start.p0(i64 4, ptr %8) #13
  call void @llvm.lifetime.start.p0(i64 4, ptr %9) #13
  call void @llvm.lifetime.start.p0(i64 4, ptr %10) #13
  %12 = load i32, ptr @Gla_ManExplorePPis.Round, align 4, !tbaa !14
  %13 = add nsw i32 %12, 1
  store i32 %13, ptr @Gla_ManExplorePPis.Round, align 4, !tbaa !14
  %14 = srem i32 %12, 5
  %15 = icmp eq i32 %14, 0
  br i1 %15, label %16, label %17

16:                                               ; preds = %2
  store i32 1, ptr %11, align 4
  br label %84

17:                                               ; preds = %2
  store i32 0, ptr %8, align 4, !tbaa !14
  store i32 0, ptr %7, align 4, !tbaa !14
  br label %18

18:                                               ; preds = %78, %17
  %19 = load i32, ptr %7, align 4, !tbaa !14
  %20 = load ptr, ptr %4, align 8, !tbaa !12
  %21 = call i32 @Vec_IntSize(ptr noundef %20)
  %22 = icmp slt i32 %19, %21
  br i1 %22, label %23, label %29

23:                                               ; preds = %18
  %24 = load ptr, ptr %3, align 8, !tbaa !3
  %25 = load ptr, ptr %4, align 8, !tbaa !12
  %26 = load i32, ptr %7, align 4, !tbaa !14
  %27 = call i32 @Vec_IntEntry(ptr noundef %25, i32 noundef %26)
  %28 = call ptr @Gla_ManObj(ptr noundef %24, i32 noundef %27)
  store ptr %28, ptr %5, align 8, !tbaa !26
  br label %29

29:                                               ; preds = %23, %18
  %30 = phi i1 [ false, %18 ], [ true, %23 ]
  br i1 %30, label %31, label %81

31:                                               ; preds = %29
  store i32 0, ptr %10, align 4, !tbaa !14
  store i32 0, ptr %9, align 4, !tbaa !14
  br label %32

32:                                               ; preds = %57, %31
  %33 = load i32, ptr %9, align 4, !tbaa !14
  %34 = load ptr, ptr %5, align 8, !tbaa !26
  %35 = getelementptr inbounds nuw %struct.Gla_Obj_t_, ptr %34, i32 0, i32 1
  %36 = load i32, ptr %35, align 4
  %37 = lshr i32 %36, 9
  %38 = icmp slt i32 %33, %37
  br i1 %38, label %39, label %48

39:                                               ; preds = %32
  %40 = load ptr, ptr %3, align 8, !tbaa !3
  %41 = load ptr, ptr %5, align 8, !tbaa !26
  %42 = getelementptr inbounds nuw %struct.Gla_Obj_t_, ptr %41, i32 0, i32 2
  %43 = load i32, ptr %9, align 4, !tbaa !14
  %44 = sext i32 %43 to i64
  %45 = getelementptr inbounds [4 x i32], ptr %42, i64 0, i64 %44
  %46 = load i32, ptr %45, align 4, !tbaa !14
  %47 = call ptr @Gla_ManObj(ptr noundef %40, i32 noundef %46)
  store ptr %47, ptr %6, align 8, !tbaa !26
  br label %48

48:                                               ; preds = %39, %32
  %49 = phi i1 [ false, %32 ], [ true, %39 ]
  br i1 %49, label %50, label %60

50:                                               ; preds = %48
  %51 = load ptr, ptr %6, align 8, !tbaa !26
  %52 = getelementptr inbounds nuw %struct.Gla_Obj_t_, ptr %51, i32 0, i32 1
  %53 = load i32, ptr %52, align 4
  %54 = and i32 %53, 1
  %55 = load i32, ptr %10, align 4, !tbaa !14
  %56 = add nsw i32 %55, %54
  store i32 %56, ptr %10, align 4, !tbaa !14
  br label %57

57:                                               ; preds = %50
  %58 = load i32, ptr %9, align 4, !tbaa !14
  %59 = add nsw i32 %58, 1
  store i32 %59, ptr %9, align 4, !tbaa !14
  br label %32, !llvm.loop !203

60:                                               ; preds = %48
  %61 = load i32, ptr %10, align 4, !tbaa !14
  %62 = icmp eq i32 %61, 0
  br i1 %62, label %70, label %63

63:                                               ; preds = %60
  %64 = load i32, ptr @Gla_ManExplorePPis.Round, align 4, !tbaa !14
  %65 = and i32 %64, 1
  %66 = icmp ne i32 %65, 0
  br i1 %66, label %67, label %71

67:                                               ; preds = %63
  %68 = load i32, ptr %10, align 4, !tbaa !14
  %69 = icmp eq i32 %68, 1
  br i1 %69, label %70, label %71

70:                                               ; preds = %67, %60
  br label %78

71:                                               ; preds = %67, %63
  %72 = load ptr, ptr %4, align 8, !tbaa !12
  %73 = load i32, ptr %8, align 4, !tbaa !14
  %74 = add nsw i32 %73, 1
  store i32 %74, ptr %8, align 4, !tbaa !14
  %75 = load ptr, ptr %3, align 8, !tbaa !3
  %76 = load ptr, ptr %5, align 8, !tbaa !26
  %77 = call i32 @Gla_ObjId(ptr noundef %75, ptr noundef %76)
  call void @Vec_IntWriteEntry(ptr noundef %72, i32 noundef %73, i32 noundef %77)
  br label %78

78:                                               ; preds = %71, %70
  %79 = load i32, ptr %7, align 4, !tbaa !14
  %80 = add nsw i32 %79, 1
  store i32 %80, ptr %7, align 4, !tbaa !14
  br label %18, !llvm.loop !204

81:                                               ; preds = %29
  %82 = load ptr, ptr %4, align 8, !tbaa !12
  %83 = load i32, ptr %8, align 4, !tbaa !14
  call void @Vec_IntShrink(ptr noundef %82, i32 noundef %83)
  store i32 0, ptr %11, align 4
  br label %84

84:                                               ; preds = %81, %16
  call void @llvm.lifetime.end.p0(i64 4, ptr %10) #13
  call void @llvm.lifetime.end.p0(i64 4, ptr %9) #13
  call void @llvm.lifetime.end.p0(i64 4, ptr %8) #13
  call void @llvm.lifetime.end.p0(i64 4, ptr %7) #13
  call void @llvm.lifetime.end.p0(i64 8, ptr %6) #13
  call void @llvm.lifetime.end.p0(i64 8, ptr %5) #13
  %85 = load i32, ptr %11, align 4
  switch i32 %85, label %87 [
    i32 0, label %86
    i32 1, label %86
  ]

86:                                               ; preds = %84, %84
  ret void

87:                                               ; preds = %84
  unreachable
}