; Function Attrs: nofree norecurse nosync nounwind memory(readwrite, inaccessiblemem: write) uwtable
define void @Gla_ManExplorePPis(ptr noundef readonly captures(none) %0, ptr noundef captures(none) %1) local_unnamed_addr #12 {
  %3 = load i32, ptr @Gla_ManExplorePPis.Round, align 4, !tbaa !22
  %.fr = freeze i32 %3
  %4 = add nsw i32 %.fr, 1
  store i32 %4, ptr @Gla_ManExplorePPis.Round, align 4, !tbaa !22
  %5 = srem i32 %.fr, 5
  %6 = icmp eq i32 %5, 0
  br i1 %6, label %66, label %.preheader

.preheader:                                       ; preds = %2
  %7 = getelementptr i8, ptr %1, i64 4
  %.val34 = load i32, ptr %7, align 4, !tbaa !3
  %8 = icmp sgt i32 %.val34, 0
  br i1 %8, label %.lr.ph, label %.critedge

.lr.ph:                                           ; preds = %.preheader
  %9 = getelementptr i8, ptr %1, i64 8
  %.val27 = load ptr, ptr %9, align 8, !tbaa !11
  %10 = getelementptr i8, ptr %0, i64 40
  %11 = and i32 %.fr, 1
  %12 = icmp eq i32 %11, 0
  br i1 %12, label %.lr.ph.split.preheader, label %.lr.ph.split.us

.lr.ph.split.preheader:                           ; preds = %.lr.ph
  %.pre = load ptr, ptr %10, align 8, !tbaa !23
  br label %.lr.ph.split

.lr.ph.split.us:                                  ; preds = %.lr.ph, %.critedge2.us.thread
  %.val.us54 = phi i32 [ %.val.us, %.critedge2.us.thread ], [ %.val34, %.lr.ph ]
  %indvars.iv43 = phi i64 [ %indvars.iv.next44, %.critedge2.us.thread ], [ 0, %.lr.ph ]
  %.02536.us = phi i32 [ %.1.us, %.critedge2.us.thread ], [ 0, %.lr.ph ]
  %13 = getelementptr inbounds nuw i32, ptr %.val27, i64 %indvars.iv43
  %14 = load i32, ptr %13, align 4, !tbaa !22
  %.not.i.us = icmp eq i32 %14, 0
  br i1 %.not.i.us, label %Gla_ManObj.exit.us, label %15

15:                                               ; preds = %.lr.ph.split.us
  %16 = load ptr, ptr %10, align 8, !tbaa !23
  %17 = sext i32 %14 to i64
  %18 = getelementptr inbounds %struct.Gla_Obj_t_, ptr %16, i64 %17
  br label %Gla_ManObj.exit.us

Gla_ManObj.exit.us:                               ; preds = %15, %.lr.ph.split.us
  %19 = phi ptr [ %18, %15 ], [ null, %.lr.ph.split.us ]
  %20 = getelementptr inbounds nuw i8, ptr %19, i64 4
  %21 = load i32, ptr %20, align 4
  %.not = icmp ult i32 %21, 512
  br i1 %.not, label %.critedge2.us.thread, label %Gla_ManObj.exit31.lr.ph.us

.critedge2.us:                                    ; preds = %Gla_ManObj.exit31.us
  %22 = icmp eq i32 %40, 0
  br i1 %22, label %.critedge2.us.thread, label %23

23:                                               ; preds = %.critedge2.us
  %24 = add nsw i32 %.02536.us, 1
  %.val29.us = load ptr, ptr %10, align 8, !tbaa !23
  %25 = ptrtoint ptr %19 to i64
  %26 = ptrtoint ptr %.val29.us to i64
  %27 = sub i64 %25, %26
  %28 = sdiv exact i64 %27, 40
  %29 = trunc i64 %28 to i32
  %30 = sext i32 %.02536.us to i64
  %31 = getelementptr inbounds i32, ptr %.val27, i64 %30
  store i32 %29, ptr %31, align 4, !tbaa !22
  %.val.us.pre = load i32, ptr %7, align 4, !tbaa !3
  br label %.critedge2.us.thread

.critedge2.us.thread:                             ; preds = %Gla_ManObj.exit.us, %23, %.critedge2.us
  %.val.us = phi i32 [ %.val.us54, %.critedge2.us ], [ %.val.us.pre, %23 ], [ %.val.us54, %Gla_ManObj.exit.us ]
  %.1.us = phi i32 [ %.02536.us, %.critedge2.us ], [ %24, %23 ], [ %.02536.us, %Gla_ManObj.exit.us ]
  %indvars.iv.next44 = add nuw nsw i64 %indvars.iv43, 1
  %32 = sext i32 %.val.us to i64
  %33 = icmp slt i64 %indvars.iv.next44, %32
  br i1 %33, label %.lr.ph.split.us, label %.critedge, !llvm.loop !203

Gla_ManObj.exit31.us:                             ; preds = %Gla_ManObj.exit31.lr.ph.us, %Gla_ManObj.exit31.us
  %indvars.iv = phi i64 [ 0, %Gla_ManObj.exit31.lr.ph.us ], [ %indvars.iv.next, %Gla_ManObj.exit31.us ]
  %.033.us = phi i32 [ 0, %Gla_ManObj.exit31.lr.ph.us ], [ %40, %Gla_ManObj.exit31.us ]
  %34 = getelementptr inbounds nuw [4 x i32], ptr %42, i64 0, i64 %indvars.iv
  %35 = load i32, ptr %34, align 4, !tbaa !22
  %.not.i30.us = icmp ne i32 %35, 0
  tail call void @llvm.assume(i1 %.not.i30.us)
  %36 = sext i32 %35 to i64
  %37 = getelementptr inbounds %struct.Gla_Obj_t_, ptr %43, i64 %36, i32 1
  %38 = load i32, ptr %37, align 4
  %39 = and i32 %38, 1
  %40 = add nuw nsw i32 %39, %.033.us
  %indvars.iv.next = add nuw nsw i64 %indvars.iv, 1
  %exitcond.not = icmp eq i64 %indvars.iv.next, %wide.trip.count
  br i1 %exitcond.not, label %.critedge2.us, label %Gla_ManObj.exit31.us, !llvm.loop !204

Gla_ManObj.exit31.lr.ph.us:                       ; preds = %Gla_ManObj.exit.us
  %41 = lshr i32 %21, 9
  %42 = getelementptr inbounds nuw i8, ptr %19, i64 8
  %43 = load ptr, ptr %10, align 8, !tbaa !23
  %wide.trip.count = zext nneg i32 %41 to i64
  br label %Gla_ManObj.exit31.us

.lr.ph.split:                                     ; preds = %.lr.ph.split.preheader, %.critedge2.thread
  %.val56 = phi i32 [ %.val34, %.lr.ph.split.preheader ], [ %.val, %.critedge2.thread ]
  %indvars.iv51 = phi i64 [ 0, %.lr.ph.split.preheader ], [ %indvars.iv.next52, %.critedge2.thread ]
  %.02536 = phi i32 [ 0, %.lr.ph.split.preheader ], [ %.1, %.critedge2.thread ]
  %44 = getelementptr inbounds nuw i32, ptr %.val27, i64 %indvars.iv51
  %45 = load i32, ptr %44, align 4, !tbaa !22
  %.not.i = icmp ne i32 %45, 0
  tail call void @llvm.assume(i1 %.not.i)
  %46 = sext i32 %45 to i64
  %47 = getelementptr inbounds %struct.Gla_Obj_t_, ptr %.pre, i64 %46
  %48 = getelementptr inbounds nuw i8, ptr %47, i64 4
  %49 = load i32, ptr %48, align 4
  %.not39 = icmp ult i32 %49, 512
  br i1 %.not39, label %.critedge2.thread, label %Gla_ManObj.exit31.lr.ph

Gla_ManObj.exit31.lr.ph:                          ; preds = %.lr.ph.split
  %50 = lshr i32 %49, 9
  %51 = getelementptr inbounds nuw i8, ptr %47, i64 8
  %wide.trip.count49 = zext nneg i32 %50 to i64
  br label %Gla_ManObj.exit31

Gla_ManObj.exit31:                                ; preds = %Gla_ManObj.exit31.lr.ph, %Gla_ManObj.exit31
  %indvars.iv46 = phi i64 [ 0, %Gla_ManObj.exit31.lr.ph ], [ %indvars.iv.next47, %Gla_ManObj.exit31 ]
  %.033 = phi i32 [ 0, %Gla_ManObj.exit31.lr.ph ], [ %58, %Gla_ManObj.exit31 ]
  %52 = getelementptr inbounds nuw [4 x i32], ptr %51, i64 0, i64 %indvars.iv46
  %53 = load i32, ptr %52, align 4, !tbaa !22
  %.not.i30 = icmp ne i32 %53, 0
  tail call void @llvm.assume(i1 %.not.i30)
  %54 = sext i32 %53 to i64
  %55 = getelementptr inbounds %struct.Gla_Obj_t_, ptr %.pre, i64 %54, i32 1
  %56 = load i32, ptr %55, align 4
  %57 = and i32 %56, 1
  %58 = add nuw nsw i32 %57, %.033
  %indvars.iv.next47 = add nuw nsw i64 %indvars.iv46, 1
  %exitcond50.not = icmp eq i64 %indvars.iv.next47, %wide.trip.count49
  br i1 %exitcond50.not, label %.critedge2, label %Gla_ManObj.exit31, !llvm.loop !204

.critedge2:                                       ; preds = %Gla_ManObj.exit31
  %59 = icmp samesign ult i32 %58, 2
  br i1 %59, label %.critedge2.thread, label %60

60:                                               ; preds = %.critedge2
  %61 = add nsw i32 %.02536, 1
  %62 = sext i32 %.02536 to i64
  %63 = getelementptr inbounds i32, ptr %.val27, i64 %62
  store i32 %45, ptr %63, align 4, !tbaa !22
  %.val.pre = load i32, ptr %7, align 4, !tbaa !3
  br label %.critedge2.thread

.critedge2.thread:                                ; preds = %.lr.ph.split, %.critedge2, %60
  %.val = phi i32 [ %.val.pre, %60 ], [ %.val56, %.critedge2 ], [ %.val56, %.lr.ph.split ]
  %.1 = phi i32 [ %61, %60 ], [ %.02536, %.critedge2 ], [ %.02536, %.lr.ph.split ]
  %indvars.iv.next52 = add nuw nsw i64 %indvars.iv51, 1
  %64 = sext i32 %.val to i64
  %65 = icmp slt i64 %indvars.iv.next52, %64
  br i1 %65, label %.lr.ph.split, label %.critedge, !llvm.loop !203

.critedge:                                        ; preds = %.critedge2.us.thread, %.critedge2.thread, %.preheader
  %.025.lcssa = phi i32 [ 0, %.preheader ], [ %.1, %.critedge2.thread ], [ %.1.us, %.critedge2.us.thread ]
  store i32 %.025.lcssa, ptr %7, align 4, !tbaa !3
  br label %66

66:                                               ; preds = %2, %.critedge
  ret void
}